; Function Attrs: mustprogress uwtable
define i64 @_ZNK8QuantLib9SwapIndex12maturityDateERKNS_4DateE(ptr noundef nonnull align 8 dereferenceable(320) %this, ptr noundef nonnull align 8 dereferenceable(8) %valueDate) unnamed_addr #6 align 2 personality ptr @__gxx_personality_v0 {
entry:
  %ref.tmp.i = alloca %"class.QuantLib::Calendar", align 8
  %fixDate = alloca %"class.QuantLib::Date", align 8
  %ref.tmp = alloca %"class.boost::shared_ptr.20", align 8
  call void @llvm.lifetime.start.p0(i64 8, ptr nonnull %fixDate) #25
  call void @llvm.lifetime.start.p0(i64 16, ptr nonnull %ref.tmp.i) #25
  %vtable.i = load ptr, ptr %this, align 8, !tbaa !28
  %vfn.i = getelementptr inbounds i8, ptr %vtable.i, i64 24
  %0 = load ptr, ptr %vfn.i, align 8
  call void %0(ptr dead_on_unwind nonnull writable sret(%"class.QuantLib::Calendar") align 8 %ref.tmp.i, ptr noundef nonnull align 8 dereferenceable(240) %this)
  %fixingDays_.i = getelementptr inbounds nuw i8, ptr %this, i64 152
  %1 = load i32, ptr %fixingDays_.i, align 8, !tbaa !89
  %sub.i = sub nsw i32 0, %1
  %call.i = invoke i64 @_ZNK8QuantLib8Calendar7advanceERKNS_4DateEiNS_8TimeUnitENS_21BusinessDayConventionEb(ptr noundef nonnull align 8 dereferenceable(16) %ref.tmp.i, ptr noundef nonnull align 8 dereferenceable(8) %valueDate, i32 noundef %sub.i, i32 noundef 0, i32 noundef 0, i1 noundef zeroext false)
          to label %invoke.cont.i unwind label %lpad.i

invoke.cont.i:                                    ; preds = %entry
  %pn.i.i.i = getelementptr inbounds nuw i8, ptr %ref.tmp.i, i64 8
  %2 = load ptr, ptr %pn.i.i.i, align 8, !tbaa !44
  %cmp.not.i.i.i.i = icmp eq ptr %2, null
  br i1 %cmp.not.i.i.i.i, label %_ZNK8QuantLib17InterestRateIndex10fixingDateERKNS_4DateE.exit, label %if.then.i.i.i.i

if.then.i.i.i.i:                                  ; preds = %invoke.cont.i
  %use_count_.i.i.i.i.i = getelementptr inbounds nuw i8, ptr %2, i64 8
  %3 = atomicrmw sub ptr %use_count_.i.i.i.i.i, i32 1 acq_rel, align 4
  %cmp.i.i.i.i.i = icmp eq i32 %3, 1
  br i1 %cmp.i.i.i.i.i, label %if.then.i.i.i.i.i, label %_ZNK8QuantLib17InterestRateIndex10fixingDateERKNS_4DateE.exit

if.then.i.i.i.i.i:                                ; preds = %if.then.i.i.i.i
  %vtable.i.i.i.i.i = load ptr, ptr %2, align 8, !tbaa !28
  %vfn.i.i.i.i.i = getelementptr inbounds i8, ptr %vtable.i.i.i.i.i, i64 16
  %4 = load ptr, ptr %vfn.i.i.i.i.i, align 8
  invoke void %4(ptr noundef nonnull align 8 dereferenceable(16) %2)
          to label %.noexc.i.i.i.i unwind label %terminate.lpad.i.i.i.i

.noexc.i.i.i.i:                                   ; preds = %if.then.i.i.i.i.i
  %weak_count_.i.i.i.i.i.i = getelementptr inbounds nuw i8, ptr %2, i64 12
  %5 = atomicrmw sub ptr %weak_count_.i.i.i.i.i.i, i32 1 acq_rel, align 4
  %cmp.i.i.i.i.i.i = icmp eq i32 %5, 1
  br i1 %cmp.i.i.i.i.i.i, label %if.then.i.i.i.i.i.i, label %_ZNK8QuantLib17InterestRateIndex10fixingDateERKNS_4DateE.exit

if.then.i.i.i.i.i.i:                              ; preds = %.noexc.i.i.i.i
  %vtable.i.i.i.i.i.i = load ptr, ptr %2, align 8, !tbaa !28
  %vfn.i.i.i.i.i.i = getelementptr inbounds i8, ptr %vtable.i.i.i.i.i.i, i64 24
  %6 = load ptr, ptr %vfn.i.i.i.i.i.i, align 8
  invoke void %6(ptr noundef nonnull align 8 dereferenceable(16) %2)
          to label %_ZNK8QuantLib17InterestRateIndex10fixingDateERKNS_4DateE.exit unwind label %terminate.lpad.i.i.i.i

terminate.lpad.i.i.i.i:                           ; preds = %if.then.i.i.i.i.i.i, %if.then.i.i.i.i.i
  %7 = landingpad { ptr, i32 }
          catch ptr null
  %8 = extractvalue { ptr, i32 } %7, 0
  call void @__clang_call_terminate(ptr %8) #26
  unreachable

common.resume:                                    ; preds = %lpad, %lpad.i
  %common.resume.op = phi { ptr, i32 } [ %9, %lpad.i ], [ %19, %lpad ]
  resume { ptr, i32 } %common.resume.op

lpad.i:                                           ; preds = %entry
  %9 = landingpad { ptr, i32 }
          cleanup
  call void @_ZN8QuantLib8CalendarD2Ev(ptr noundef nonnull align 8 dereferenceable(16) %ref.tmp.i) #25
  call void @llvm.lifetime.end.p0(i64 16, ptr nonnull %ref.tmp.i) #25
  br label %common.resume

_ZNK8QuantLib17InterestRateIndex10fixingDateERKNS_4DateE.exit: ; preds = %invoke.cont.i, %if.then.i.i.i.i, %.noexc.i.i.i.i, %if.then.i.i.i.i.i.i
  call void @llvm.lifetime.end.p0(i64 16, ptr nonnull %ref.tmp.i) #25
  store i64 %call.i, ptr %fixDate, align 8
  call void @llvm.lifetime.start.p0(i64 16, ptr nonnull %ref.tmp) #25
  call void @_ZNK8QuantLib9SwapIndex14underlyingSwapERKNS_4DateE(ptr dead_on_unwind nonnull writable sret(%"class.boost::shared_ptr.20") align 8 %ref.tmp, ptr noundef nonnull align 8 dereferenceable(320) %this, ptr noundef nonnull align 8 dereferenceable(8) %fixDate)
  %10 = load ptr, ptr %ref.tmp, align 8, !tbaa !88
  %cmp.not.i = icmp eq ptr %10, null
  br i1 %cmp.not.i, label %cond.false.i, label %invoke.cont, !prof !84

cond.false.i:                                     ; preds = %_ZNK8QuantLib17InterestRateIndex10fixingDateERKNS_4DateE.exit
  invoke void @_ZN5boost16assertion_failedEPKcS1_S1_l(ptr noundef nonnull @.str.7, ptr noundef nonnull @__PRETTY_FUNCTION__._ZNK5boost10shared_ptrIN8QuantLib11VanillaSwapEEptEv, ptr noundef nonnull @.str.8, i64 noundef 784)
          to label %invoke.cont unwind label %lpad

invoke.cont:                                      ; preds = %cond.false.i, %_ZNK8QuantLib17InterestRateIndex10fixingDateERKNS_4DateE.exit
  %vtable = load ptr, ptr %10, align 8, !tbaa !28
  %vfn = getelementptr inbounds i8, ptr %vtable, i64 88
  %11 = load ptr, ptr %vfn, align 8
  %call4 = invoke i64 %11(ptr noundef nonnull align 8 dereferenceable(256) %10)
          to label %invoke.cont3 unwind label %lpad

invoke.cont3:                                     ; preds = %invoke.cont
  %pn.i = getelementptr inbounds nuw i8, ptr %ref.tmp, i64 8
  %12 = load ptr, ptr %pn.i, align 8, !tbaa !44
  %cmp.not.i.i = icmp eq ptr %12, null
  br i1 %cmp.not.i.i, label %_ZN5boost10shared_ptrIN8QuantLib11VanillaSwapEED2Ev.exit, label %if.then.i.i

if.then.i.i:                                      ; preds = %invoke.cont3
  %use_count_.i.i.i = getelementptr inbounds nuw i8, ptr %12, i64 8
  %13 = atomicrmw sub ptr %use_count_.i.i.i, i32 1 acq_rel, align 4
  %cmp.i.i.i = icmp eq i32 %13, 1
  br i1 %cmp.i.i.i, label %if.then.i.i.i, label %_ZN5boost10shared_ptrIN8QuantLib11VanillaSwapEED2Ev.exit

if.then.i.i.i:                                    ; preds = %if.then.i.i
  %vtable.i.i.i = load ptr, ptr %12, align 8, !tbaa !28
  %vfn.i.i.i = getelementptr inbounds i8, ptr %vtable.i.i.i, i64 16
  %14 = load ptr, ptr %vfn.i.i.i, align 8
  invoke void %14(ptr noundef nonnull align 8 dereferenceable(16) %12)
          to label %.noexc.i.i unwind label %terminate.lpad.i.i

.noexc.i.i:                                       ; preds = %if.then.i.i.i
  %weak_count_.i.i.i.i = getelementptr inbounds nuw i8, ptr %12, i64 12
  %15 = atomicrmw sub ptr %weak_count_.i.i.i.i, i32 1 acq_rel, align 4
  %cmp.i.i.i.i = icmp eq i32 %15, 1
  br i1 %cmp.i.i.i.i, label %if.then.i.i.i.i1, label %_ZN5boost10shared_ptrIN8QuantLib11VanillaSwapEED2Ev.exit

if.then.i.i.i.i1:                                 ; preds = %.noexc.i.i
  %vtable.i.i.i.i = load ptr, ptr %12, align 8, !tbaa !28
  %vfn.i.i.i.i = getelementptr inbounds i8, ptr %vtable.i.i.i.i, i64 24
  %16 = load ptr, ptr %vfn.i.i.i.i, align 8
  invoke void %16(ptr noundef nonnull align 8 dereferenceable(16) %12)
          to label %_ZN5boost10shared_ptrIN8QuantLib11VanillaSwapEED2Ev.exit unwind label %terminate.lpad.i.i

terminate.lpad.i.i:                               ; preds = %if.then.i.i.i.i1, %if.then.i.i.i
  %17 = landingpad { ptr, i32 }
          catch ptr null
  %18 = extractvalue { ptr, i32 } %17, 0
  call void @__clang_call_terminate(ptr %18) #26
  unreachable

_ZN5boost10shared_ptrIN8QuantLib11VanillaSwapEED2Ev.exit: ; preds = %invoke.cont3, %if.then.i.i, %.noexc.i.i, %if.then.i.i.i.i1
  call void @llvm.lifetime.end.p0(i64 16, ptr nonnull %ref.tmp) #25
  call void @llvm.lifetime.end.p0(i64 8, ptr nonnull %fixDate) #25
  ret i64 %call4

lpad:                                             ; preds = %cond.false.i, %invoke.cont
  %19 = landingpad { ptr, i32 }
          cleanup
  call void @_ZN5boost10shared_ptrIN8QuantLib11VanillaSwapEED2Ev(ptr noundef nonnull align 8 dereferenceable(16) %ref.tmp) #25
  call void @llvm.lifetime.end.p0(i64 16, ptr nonnull %ref.tmp) #25
  call void @llvm.lifetime.end.p0(i64 8, ptr nonnull %fixDate) #25
  br label %common.resume
}